; Function Attrs: nounwind uwtable
define zeroext range(i8 0, 2) i8 @l___private_Std_Time_Time_PlainTime_0__Std_Time_decEqPlainTime____x40_Std_Time_Time_PlainTime___hyg_501_(ptr noundef readonly captures(none) %0, ptr noundef readonly captures(none) %1) local_unnamed_addr #0 {
  %3 = getelementptr inbounds nuw i8, ptr %0, i64 8
  %4 = load ptr, ptr %3, align 8, !tbaa !4
  %5 = getelementptr inbounds nuw i8, ptr %0, i64 16
  %6 = load ptr, ptr %5, align 8, !tbaa !4
  %7 = getelementptr inbounds nuw i8, ptr %0, i64 24
  %8 = load ptr, ptr %7, align 8, !tbaa !4
  %9 = getelementptr inbounds nuw i8, ptr %0, i64 32
  %10 = load ptr, ptr %9, align 8, !tbaa !4
  %11 = getelementptr inbounds nuw i8, ptr %1, i64 8
  %12 = load ptr, ptr %11, align 8, !tbaa !4
  %13 = getelementptr inbounds nuw i8, ptr %1, i64 16
  %14 = load ptr, ptr %13, align 8, !tbaa !4
  %15 = getelementptr inbounds nuw i8, ptr %1, i64 24
  %16 = load ptr, ptr %15, align 8, !tbaa !4
  %17 = getelementptr inbounds nuw i8, ptr %1, i64 32
  %18 = load ptr, ptr %17, align 8, !tbaa !4
  %19 = ptrtoint ptr %4 to i64
  %20 = ptrtoint ptr %12 to i64
  %21 = and i64 %19, 1
  %22 = and i64 %21, %20
  %or.cond.not.i.i = icmp eq i64 %22, 0
  br i1 %or.cond.not.i.i, label %lean_int_dec_eq.exit, label %23, !prof !15

23:                                               ; preds = %2
  %24 = icmp eq ptr %4, %12
  br i1 %24, label %26, label %51

lean_int_dec_eq.exit:                             ; preds = %2
  %25 = tail call zeroext i1 @lean_int_big_eq(ptr noundef %4, ptr noundef %12) #4
  br i1 %25, label %26, label %51

26:                                               ; preds = %23, %lean_int_dec_eq.exit
  %27 = ptrtoint ptr %6 to i64
  %28 = ptrtoint ptr %14 to i64
  %29 = and i64 %27, 1
  %30 = and i64 %29, %28
  %or.cond.not.i.i23 = icmp eq i64 %30, 0
  br i1 %or.cond.not.i.i23, label %lean_int_dec_eq.exit26, label %31, !prof !15

31:                                               ; preds = %26
  %32 = icmp eq ptr %6, %14
  br i1 %32, label %34, label %51

lean_int_dec_eq.exit26:                           ; preds = %26
  %33 = tail call zeroext i1 @lean_int_big_eq(ptr noundef %6, ptr noundef %14) #4
  br i1 %33, label %34, label %51

34:                                               ; preds = %31, %lean_int_dec_eq.exit26
  %35 = ptrtoint ptr %8 to i64
  %36 = ptrtoint ptr %16 to i64
  %37 = and i64 %35, 1
  %38 = and i64 %37, %36
  %or.cond.not.i.i27 = icmp eq i64 %38, 0
  br i1 %or.cond.not.i.i27, label %lean_int_dec_eq.exit30, label %39, !prof !15

39:                                               ; preds = %34
  %40 = icmp eq ptr %8, %16
  br i1 %40, label %42, label %51

lean_int_dec_eq.exit30:                           ; preds = %34
  %41 = tail call zeroext i1 @lean_int_big_eq(ptr noundef %8, ptr noundef %16) #4
  br i1 %41, label %42, label %51

42:                                               ; preds = %39, %lean_int_dec_eq.exit30
  %43 = ptrtoint ptr %10 to i64
  %44 = ptrtoint ptr %18 to i64
  %45 = and i64 %43, 1
  %46 = and i64 %45, %44
  %or.cond.not.i.i31 = icmp eq i64 %46, 0
  br i1 %or.cond.not.i.i31, label %.critedge.i.i33, label %47, !prof !15

47:                                               ; preds = %42
  %48 = icmp eq ptr %10, %18
  br label %lean_int_dec_eq.exit34

.critedge.i.i33:                                  ; preds = %42
  %49 = tail call zeroext i1 @lean_int_big_eq(ptr noundef %10, ptr noundef %18) #4
  br label %lean_int_dec_eq.exit34

lean_int_dec_eq.exit34:                           ; preds = %47, %.critedge.i.i33
  %.0.i.i32 = phi i1 [ %48, %47 ], [ %49, %.critedge.i.i33 ]
  %50 = zext i1 %.0.i.i32 to i8
  br label %51

51:                                               ; preds = %39, %31, %23, %lean_int_dec_eq.exit26, %lean_int_dec_eq.exit30, %lean_int_dec_eq.exit34, %lean_int_dec_eq.exit
  %.0 = phi i8 [ 0, %lean_int_dec_eq.exit ], [ 0, %lean_int_dec_eq.exit26 ], [ %50, %lean_int_dec_eq.exit34 ], [ 0, %lean_int_dec_eq.exit30 ], [ 0, %23 ], [ 0, %31 ], [ 0, %39 ]
  ret i8 %.0
}